; Function Attrs: nounwind uwtable
define dso_local i32 @string_list_find_insert_index(ptr noundef readonly captures(none) %0, ptr noundef %1, i32 noundef %2) local_unnamed_addr #4 {
  %4 = getelementptr inbounds nuw i8, ptr %0, i64 8
  %5 = load i64, ptr %4, align 8, !tbaa !4
  %6 = trunc i64 %5 to i32
  %7 = getelementptr inbounds nuw i8, ptr %0, i64 32
  %8 = load ptr, ptr %7, align 8, !tbaa !12
  %.not.i = icmp eq ptr %8, null
  %spec.select.i = select i1 %.not.i, ptr @strcmp, ptr %8
  %9 = icmp sgt i32 %6, 0
  br i1 %9, label %.lr.ph.i, label %.loopexit

.lr.ph.i:                                         ; preds = %3, %20
  %.02236.i = phi i32 [ %.224.i, %20 ], [ -1, %3 ]
  %.02535.i = phi i32 [ %.227.i, %20 ], [ %6, %3 ]
  %10 = sub nsw i32 %.02535.i, %.02236.i
  %11 = sdiv i32 %10, 2
  %12 = add nsw i32 %11, %.02236.i
  %13 = load ptr, ptr %0, align 8, !tbaa !13
  %14 = sext i32 %12 to i64
  %15 = getelementptr inbounds %struct.string_list_item, ptr %13, i64 %14
  %16 = load ptr, ptr %15, align 8, !tbaa !14
  %17 = tail call i32 %spec.select.i(ptr noundef %1, ptr noundef %16) #11
  %18 = icmp slt i32 %17, 0
  br i1 %18, label %20, label %19

19:                                               ; preds = %.lr.ph.i
  %.not30.i = icmp eq i32 %17, 0
  br i1 %.not30.i, label %get_entry_index.exit, label %20

20:                                               ; preds = %19, %.lr.ph.i
  %.227.i = phi i32 [ %12, %.lr.ph.i ], [ %.02535.i, %19 ]
  %.224.i = phi i32 [ %.02236.i, %.lr.ph.i ], [ %12, %19 ]
  %21 = add nsw i32 %.224.i, 1
  %22 = icmp slt i32 %21, %.227.i
  br i1 %22, label %.lr.ph.i, label %.loopexit, !llvm.loop !17

get_entry_index.exit:                             ; preds = %19
  %.not4 = icmp eq i32 %2, 0
  %23 = xor i32 %12, -1
  %24 = select i1 %.not4, i32 -1, i32 %23
  br label %.loopexit

.loopexit:                                        ; preds = %20, %3, %get_entry_index.exit
  %25 = phi i32 [ %24, %get_entry_index.exit ], [ %6, %3 ], [ %.227.i, %20 ]
  ret i32 %25
}